; Function Attrs: mustprogress nofree norecurse nosync nounwind willreturn memory(argmem: read) uwtable
define ptr @Mio_GateReadTruthP(ptr noundef readonly %0) local_unnamed_addr #0 {
  %2 = getelementptr inbounds nuw i8, ptr %0, i64 68
  %3 = load i32, ptr %2, align 4, !tbaa !51
  %4 = icmp slt i32 %3, 7
  %5 = getelementptr inbounds nuw i8, ptr %0, i64 104
  br i1 %4, label %8, label %6

6:                                                ; preds = %1
  %7 = load ptr, ptr %5, align 8, !tbaa !52
  br label %8

8:                                                ; preds = %1, %6
  %9 = phi ptr [ %7, %6 ], [ %5, %1 ]
  ret ptr %9
}